EXPORTS
	??0CExtProgressDialog@@QAE@PAPAV0@@Z @ 1 NONAME ; CExtProgressDialog::CExtProgressDialog(class CExtProgressDialog * *)
	??1CExtProgressDialog@@UAE@XZ @ 2 NONAME ; CExtProgressDialog::~CExtProgressDialog(void)
	??1CVeiCutterBar@@UAE@XZ @ 3 NONAME ; CVeiCutterBar::~CVeiCutterBar(void)
	??1CVeiTextDisplay@@UAE@XZ @ 4 NONAME ; CVeiTextDisplay::~CVeiTextDisplay(void)
	??1CVeiTimeLabelNavi@@UAE@XZ @ 5 NONAME ; CVeiTimeLabelNavi::~CVeiTimeLabelNavi(void)
	??1CVeiVideoDisplay@@UAE@XZ @ 6 NONAME ; CVeiVideoDisplay::~CVeiVideoDisplay(void)
	?AdjustVolumeL@CVeiVideoDisplay@@QAEXH@Z @ 7 NONAME ; void CVeiVideoDisplay::AdjustVolumeL(int)
	?Dim@CVeiCutterBar@@UAEXH@Z @ 8 NONAME ; void CVeiCutterBar::Dim(int)
	?EndMarkPoint@CVeiCutterBar@@QAEIXZ @ 9 NONAME ; unsigned int CVeiCutterBar::EndMarkPoint(void)
	?EndMarkRect@CVeiCutterBar@@QAE?AVTRect@@XZ @ 10 NONAME ; class TRect CVeiCutterBar::EndMarkRect(void)
	?GetBorderWidth@CVeiVideoDisplay@@QBEHXZ @ 11 NONAME ; int CVeiVideoDisplay::GetBorderWidth(void) const
	?GetProgressInfoL@CExtProgressDialog@@QAEPAVCEikProgressInfo@@XZ @ 12 NONAME ; class CEikProgressInfo * CExtProgressDialog::GetProgressInfoL(void)
	?GetScreenSize@CVeiVideoDisplay@@QBE?AVTSize@@XZ @ 13 NONAME ; class TSize CVeiVideoDisplay::GetScreenSize(void) const
	?NewL@CVeiCutterBar@@SAPAV1@PBVCCoeControl@@H@Z @ 14 NONAME ; class CVeiCutterBar * CVeiCutterBar::NewL(class CCoeControl const *, int)
	?NewL@CVeiErrorUI@@SAPAV1@AAVCCoeEnv@@@Z @ 15 NONAME ; class CVeiErrorUI * CVeiErrorUI::NewL(class CCoeEnv &)
	?NewL@CVeiTextDisplay@@SAPAV1@ABVTRect@@PBVCCoeControl@@@Z @ 16 NONAME ; class CVeiTextDisplay * CVeiTextDisplay::NewL(class TRect const &, class CCoeControl const *)
	?NewL@CVeiTimeLabelNavi@@SAPAV1@XZ @ 17 NONAME ; class CVeiTimeLabelNavi * CVeiTimeLabelNavi::NewL(void)
	?NewL@CVeiVideoDisplay@@SAPAV1@ABVTRect@@PBVCCoeControl@@AAVMVeiVideoDisplayObserver@@@Z @ 18 NONAME ; class CVeiVideoDisplay * CVeiVideoDisplay::NewL(class TRect const &, class CCoeControl const *, class MVeiVideoDisplayObserver &)
	?NewLC@CVeiCutterBar@@SAPAV1@PBVCCoeControl@@H@Z @ 19 NONAME ; class CVeiCutterBar * CVeiCutterBar::NewLC(class CCoeControl const *, int)
	?NewLC@CVeiTextDisplay@@SAPAV1@ABVTRect@@PBVCCoeControl@@@Z @ 20 NONAME ; class CVeiTextDisplay * CVeiTextDisplay::NewLC(class TRect const &, class CCoeControl const *)
	?NewLC@CVeiTimeLabelNavi@@SAPAV1@XZ @ 21 NONAME ; class CVeiTimeLabelNavi * CVeiTimeLabelNavi::NewLC(void)
	?NewLC@CVeiVideoDisplay@@SAPAV1@ABVTRect@@PBVCCoeControl@@AAVMVeiVideoDisplayObserver@@@Z @ 22 NONAME ; class CVeiVideoDisplay * CVeiVideoDisplay::NewLC(class TRect const &, class CCoeControl const *, class MVeiVideoDisplayObserver &)
	?OpenFileL@CVeiVideoDisplay@@QAEXABVTDesC16@@@Z @ 23 NONAME ; void CVeiVideoDisplay::OpenFileL(class TDesC16 const &)
	?PauseL@CVeiVideoDisplay@@QAEXXZ @ 24 NONAME ; void CVeiVideoDisplay::PauseL(void)
	?Play@CVeiVideoDisplay@@QAEXXZ @ 25 NONAME ; void CVeiVideoDisplay::Play(void)
	?PlayHeadRect@CVeiCutterBar@@QAE?AVTRect@@XZ @ 26 NONAME ; class TRect CVeiCutterBar::PlayHeadRect(void)
	?PlayL@CVeiVideoDisplay@@QAEXABVTDesC16@@ABVTTimeIntervalMicroSeconds@@1@Z @ 27 NONAME ; void CVeiVideoDisplay::PlayL(class TDesC16 const &, class TTimeIntervalMicroSeconds const &, class TTimeIntervalMicroSeconds const &)
	?PlayMarkedL@CVeiVideoDisplay@@QAEXABVTTimeIntervalMicroSeconds@@0@Z @ 28 NONAME ; void CVeiVideoDisplay::PlayMarkedL(class TTimeIntervalMicroSeconds const &, class TTimeIntervalMicroSeconds const &)
	?PositionL@CVeiVideoDisplay@@QBE?AVTTimeIntervalMicroSeconds@@XZ @ 29 NONAME ; class TTimeIntervalMicroSeconds CVeiVideoDisplay::PositionL(void) const
	?PrepareLC@CExtProgressDialog@@UAEXH@Z @ 30 NONAME ; void CExtProgressDialog::PrepareLC(int)
	?ProgressBarRect@CVeiCutterBar@@QAE?AVTRect@@XZ @ 31 NONAME ; class TRect CVeiCutterBar::ProgressBarRect(void)
	?RotationL@CVeiVideoDisplay@@QBE?AW4TVideoRotation@@XZ @ 32 NONAME ; enum TVideoRotation CVeiVideoDisplay::RotationL(void) const
	?SetAnimationResourceIdL@CExtProgressDialog@@QAEXABH@Z @ 33 NONAME ; void CExtProgressDialog::SetAnimationResourceIdL(int const &)
	?SetArrowSize@CVeiTextDisplay@@QAEXABVTSize@@@Z @ 34 NONAME ; void CVeiTextDisplay::SetArrowSize(class TSize const &)
	?SetBlackScreen@CVeiVideoDisplay@@QAEXH@Z @ 35 NONAME ; void CVeiVideoDisplay::SetBlackScreen(int)
	?SetCallback@CExtProgressDialog@@QAEXPAVMExtProgressDialogCallback@@@Z @ 36 NONAME ; void CExtProgressDialog::SetCallback(class MExtProgressDialogCallback *)
	?SetComponentRect@CVeiCutterBar@@QAEXW4TCutterBarComponent@1@VTRect@@@Z @ 37 NONAME ; void CVeiCutterBar::SetComponentRect(enum CVeiCutterBar::TCutterBarComponent, class TRect)
	?SetComponentRect@CVeiTextDisplay@@QAEXW4TTextDisplayComponent@1@VTRect@@@Z @ 38 NONAME ; void CVeiTextDisplay::SetComponentRect(enum CVeiTextDisplay::TTextDisplayComponent, class TRect)
	?SetCurrentPoint@CVeiCutterBar@@UAEXH@Z @ 39 NONAME ; void CVeiCutterBar::SetCurrentPoint(int)
	?SetCutIn@CVeiTextDisplay@@QAEXABVTTimeIntervalMicroSeconds@@@Z @ 40 NONAME ; void CVeiTextDisplay::SetCutIn(class TTimeIntervalMicroSeconds const &)
	?SetCutOut@CVeiTextDisplay@@QAEXABVTTimeIntervalMicroSeconds@@@Z @ 41 NONAME ; void CVeiTextDisplay::SetCutOut(class TTimeIntervalMicroSeconds const &)
	?SetDuration@CVeiTextDisplay@@QAEXABVTTimeIntervalMicroSeconds@@@Z @ 42 NONAME ; void CVeiTextDisplay::SetDuration(class TTimeIntervalMicroSeconds const &)
	?SetFinishedStatus@CVeiCutterBar@@UAEXH@Z @ 43 NONAME ; void CVeiCutterBar::SetFinishedStatus(int)
	?SetFrameIntervalL@CVeiVideoDisplay@@QAEXH@Z @ 44 NONAME ; void CVeiVideoDisplay::SetFrameIntervalL(int)
	?SetInPoint@CVeiCutterBar@@UAEXABVTTimeIntervalMicroSeconds@@@Z @ 45 NONAME ; void CVeiCutterBar::SetInPoint(class TTimeIntervalMicroSeconds const &)
	?SetLabelL@CVeiTimeLabelNavi@@QAEXABVTDesC16@@@Z @ 46 NONAME ; void CVeiTimeLabelNavi::SetLabelL(class TDesC16 const &)
	?SetLandscapeScreenOrientation@CVeiTextDisplay@@QAEXH@Z @ 47 NONAME ; void CVeiTextDisplay::SetLandscapeScreenOrientation(int)
	?SetLayout@CVeiTextDisplay@@QAEXW4TVeiLayout@1@@Z @ 48 NONAME ; void CVeiTextDisplay::SetLayout(enum CVeiTextDisplay::TVeiLayout)
	?SetLeftArrowVisibility@CVeiTextDisplay@@QAEXH@Z @ 49 NONAME ; void CVeiTextDisplay::SetLeftArrowVisibility(int)
	?SetLeftArrowVisibilityL@CVeiTimeLabelNavi@@QAEXH@Z @ 50 NONAME ; void CVeiTimeLabelNavi::SetLeftArrowVisibilityL(int)
	?SetLocation@CVeiTextDisplay@@QAEXABVTDesC16@@@Z @ 51 NONAME ; void CVeiTextDisplay::SetLocation(class TDesC16 const &)
	?SetLowerArrowVisibility@CVeiTextDisplay@@QAEXH@Z @ 52 NONAME ; void CVeiTextDisplay::SetLowerArrowVisibility(int)
	?SetMuteL@CVeiVideoDisplay@@QAEXH@Z @ 53 NONAME ; void CVeiVideoDisplay::SetMuteL(int)
	?SetName@CVeiTextDisplay@@QAEXABVTDesC16@@@Z @ 54 NONAME ; void CVeiTextDisplay::SetName(class TDesC16 const &)
	?SetOutPoint@CVeiCutterBar@@UAEXABVTTimeIntervalMicroSeconds@@@Z @ 55 NONAME ; void CVeiCutterBar::SetOutPoint(class TTimeIntervalMicroSeconds const &)
	?SetPauseIconVisibilityL@CVeiTimeLabelNavi@@QAEXH@Z @ 56 NONAME ; void CVeiTimeLabelNavi::SetPauseIconVisibilityL(int)
	?SetPictureL@CVeiVideoDisplay@@QAEXABVCFbsBitmap@@@Z @ 57 NONAME ; void CVeiVideoDisplay::SetPictureL(class CFbsBitmap const &)
	?SetPlayHeadVisible@CVeiCutterBar@@UAEXH@Z @ 58 NONAME ; void CVeiCutterBar::SetPlayHeadVisible(int)
	?SetPositionL@CVeiVideoDisplay@@QAEXABVTTimeIntervalMicroSeconds@@@Z @ 59 NONAME ; void CVeiVideoDisplay::SetPositionL(class TTimeIntervalMicroSeconds const &)
	?SetPressedComponent@CVeiCutterBar@@QAEXW4TCutterBarPressedIcon@1@@Z @ 60 NONAME ; void CVeiCutterBar::SetPressedComponent(enum CVeiCutterBar::TCutterBarPressedIcon)
	?SetRightArrowVisibility@CVeiTextDisplay@@QAEXH@Z @ 61 NONAME ; void CVeiTextDisplay::SetRightArrowVisibility(int)
	?SetRightArrowVisibilityL@CVeiTimeLabelNavi@@QAEXH@Z @ 62 NONAME ; void CVeiTimeLabelNavi::SetRightArrowVisibilityL(int)
	?SetRotationL@CVeiVideoDisplay@@QAEXW4TVideoRotation@@@Z @ 63 NONAME ; void CVeiVideoDisplay::SetRotationL(enum TVideoRotation)
	?SetSlowMotionOn@CVeiTextDisplay@@QAEXH@Z @ 64 NONAME ; void CVeiTextDisplay::SetSlowMotionOn(int)
	?SetSlowMotionPreset@CVeiTextDisplay@@QAEXH@Z @ 65 NONAME ; void CVeiTextDisplay::SetSlowMotionPreset(int)
	?SetTextL@CExtProgressDialog@@QAEXABVTDesC16@@@Z @ 66 NONAME ; void CExtProgressDialog::SetTextL(class TDesC16 const &)
	?SetTime@CVeiTextDisplay@@QAEXABVTTime@@@Z @ 67 NONAME ; void CVeiTextDisplay::SetTime(class TTime const &)
	?SetTotalDuration@CVeiCutterBar@@UAEXABVTTimeIntervalMicroSeconds@@@Z @ 68 NONAME ; void CVeiCutterBar::SetTotalDuration(class TTimeIntervalMicroSeconds const &)
	?SetUpperArrowVisibility@CVeiTextDisplay@@QAEXH@Z @ 69 NONAME ; void CVeiTextDisplay::SetUpperArrowVisibility(int)
	?SetVolumeIconVisibilityL@CVeiTimeLabelNavi@@QAEXH@Z @ 70 NONAME ; void CVeiTimeLabelNavi::SetVolumeIconVisibilityL(int)
	?ShowAnimationL@CVeiVideoDisplay@@QAEXHH@Z @ 71 NONAME ; void CVeiVideoDisplay::ShowAnimationL(int, int)
	?ShowBlackScreen@CVeiVideoDisplay@@QAEXXZ @ 72 NONAME ; void CVeiVideoDisplay::ShowBlackScreen(void)
	?ShowBlankScreen@CVeiVideoDisplay@@QAEXXZ @ 73 NONAME ; void CVeiVideoDisplay::ShowBlankScreen(void)
	?ShowErrorNote@CVeiErrorUI@@SAHAAVCCoeEnv@@HH@Z @ 74 NONAME ; int CVeiErrorUI::ShowErrorNote(class CCoeEnv &, int, int)
	?ShowGlobalErrorNote@CVeiErrorUI@@QBEHH@Z @ 75 NONAME ; int CVeiErrorUI::ShowGlobalErrorNote(int) const
	?ShowPictureL@CVeiVideoDisplay@@QAEXABVCFbsBitmap@@0@Z @ 76 NONAME ; void CVeiVideoDisplay::ShowPictureL(class CFbsBitmap const &, class CFbsBitmap const &)
	?ShowPictureL@CVeiVideoDisplay@@QAEXABVCFbsBitmap@@@Z @ 77 NONAME ; void CVeiVideoDisplay::ShowPictureL(class CFbsBitmap const &)
	?SlowMotionOn@CVeiTextDisplay@@QBEHXZ @ 78 NONAME ; int CVeiTextDisplay::SlowMotionOn(void) const
	?SlowMotionPreset@CVeiTextDisplay@@QBEHXZ @ 79 NONAME ; int CVeiTextDisplay::SlowMotionPreset(void) const
	?StartAnimationL@CExtProgressDialog@@QAEXXZ @ 80 NONAME ; void CExtProgressDialog::StartAnimationL(void)
	?StartMarkPoint@CVeiCutterBar@@QAEIXZ @ 81 NONAME ; unsigned int CVeiCutterBar::StartMarkPoint(void)
	?StartMarkRect@CVeiCutterBar@@QAE?AVTRect@@XZ @ 82 NONAME ; class TRect CVeiCutterBar::StartMarkRect(void)
	?Stop@CVeiVideoDisplay@@QAEXH@Z @ 83 NONAME ; void CVeiVideoDisplay::Stop(int)
	?StopAnimation@CVeiVideoDisplay@@QAEXXZ @ 84 NONAME ; void CVeiVideoDisplay::StopAnimation(void)
	?TotalLengthL@CVeiVideoDisplay@@QAE?AVTTimeIntervalMicroSeconds@@XZ @ 85 NONAME ; class TTimeIntervalMicroSeconds CVeiVideoDisplay::TotalLengthL(void)
	?Volume@CVeiVideoDisplay@@QBEHXZ @ 86 NONAME ; int CVeiVideoDisplay::Volume(void) const

