EXPORTS
	??1CMPAudDec@@UAE@XZ @ 1 NONAME ; CMPAudDec::~CMPAudDec(void)
	??1CMp3Edit@@UAE@XZ @ 2 NONAME ; CMp3Edit::~CMp3Edit(void)
	?AACGetMP4ConfigInfo@@YAFHEEFPAEE@Z @ 3 NONAME ; short AACGetMP4ConfigInfo(int, unsigned char, unsigned char, short, unsigned char *, unsigned char)
	?BsBufferUpdate@@YAXPAVTBitStream@@H@Z @ 4 NONAME ; void BsBufferUpdate(class TBitStream *, int)
	?BsByteAlign@@YAFPAVTBitStream@@@Z @ 5 NONAME ; short BsByteAlign(class TBitStream *)
	?BsClearBitsRead@@YAXPAVTBitStream@@@Z @ 6 NONAME ; void BsClearBitsRead(class TBitStream *)
	?BsCopyBits@@YAXPAVTBitStream@@0H@Z @ 7 NONAME ; void BsCopyBits(class TBitStream *, class TBitStream *, int)
	?BsCopyBytes@@YAIPAVTBitStream@@PAEI@Z @ 8 NONAME ; unsigned int BsCopyBytes(class TBitStream *, unsigned char *, unsigned int)
	?BsGetBits@@YAIPAVTBitStream@@F@Z @ 9 NONAME ; unsigned int BsGetBits(class TBitStream *, short)
	?BsGetBitsRead@@YAIPAVTBitStream@@@Z @ 10 NONAME ; unsigned int BsGetBitsRead(class TBitStream *)
	?BsGetBufOriginalSize@@YAIPAVTBitStream@@@Z @ 11 NONAME ; unsigned int BsGetBufOriginalSize(class TBitStream *)
	?BsGetBufSize@@YAIPAVTBitStream@@@Z @ 12 NONAME ; unsigned int BsGetBufSize(class TBitStream *)
	?BsInit2@@YAXPAVTBitStream@@PAEI@Z @ 13 NONAME ; void BsInit2(class TBitStream *, unsigned char *, unsigned int)
	?BsInit@@YAXPAVTBitStream@@PAEI@Z @ 14 NONAME ; void BsInit(class TBitStream *, unsigned char *, unsigned int)
	?BsLookAhead@@YAIPAVTBitStream@@F@Z @ 15 NONAME ; unsigned int BsLookAhead(class TBitStream *, short)
	?BsPutBits@@YAXPAVTBitStream@@FI@Z @ 16 NONAME ; void BsPutBits(class TBitStream *, short, unsigned int)
	?BsPutBitsByteAlign@@YAFPAVTBitStream@@@Z @ 17 NONAME ; short BsPutBitsByteAlign(class TBitStream *)
	?BsReset@@YAXPAVTBitStream@@@Z @ 18 NONAME ; void BsReset(class TBitStream *)
	?BsRewindNBits@@YAXPAVTBitStream@@I@Z @ 19 NONAME ; void BsRewindNBits(class TBitStream *, unsigned int)
	?BsSaveBufState@@YAXPAVTBitStream@@0@Z @ 20 NONAME ; void BsSaveBufState(class TBitStream *, class TBitStream *)
	?BsSetBitsRead@@YAXPAVTBitStream@@I@Z @ 21 NONAME ; void BsSetBitsRead(class TBitStream *, unsigned int)
	?BsSkipBits@@YAXPAVTBitStream@@F@Z @ 22 NONAME ; void BsSkipBits(class TBitStream *, short)
	?BsSkipNBits@@YAXPAVTBitStream@@H@Z @ 23 NONAME ; void BsSkipNBits(class TBitStream *, int)
	?BsSlotsLeft@@YAIPAVTBitStream@@@Z @ 24 NONAME ; unsigned int BsSlotsLeft(class TBitStream *)
	?CountAACChunkLength@@YAFPAVTBitStream@@PAVCAACAudDec@@PAF@Z @ 25 NONAME ; short CountAACChunkLength(class TBitStream *, class CAACAudDec *, short *)
	?CreateAACAudDecL@@YAXAAPAVCAACAudDec@@FF@Z @ 26 NONAME ; void CreateAACAudDecL(class CAACAudDec * &, short, short)
	?CreateAACPlusAudDecL@@YAEPAVCAACAudDec@@FEE@Z @ 27 NONAME ; unsigned char CreateAACPlusAudDecL(class CAACAudDec *, short, unsigned char, unsigned char)
	?DeleteAACAudDec@@YAPAVCAACAudDec@@PAV1@@Z @ 28 NONAME ; class CAACAudDec * DeleteAACAudDec(class CAACAudDec *)
	?EstimateBitrate@CMp3Edit@@QBEFPAVTMpTransportHandle@@E@Z @ 29 NONAME ; short CMp3Edit::EstimateBitrate(class TMpTransportHandle *, unsigned char) const
	?FileLengthInMs@CMp3Edit@@QBEIPAVTMpTransportHandle@@H@Z @ 30 NONAME ; unsigned int CMp3Edit::FileLengthInMs(class TMpTransportHandle *, int) const
	?FreeMode@CMp3Edit@@QBEFPAVTMpTransportHandle@@PAEIPAF22@Z @ 31 NONAME ; short CMp3Edit::FreeMode(class TMpTransportHandle *, unsigned char *, unsigned int, short *, short *, short *) const
	?GetAACGlobalGains@@YAEPAVTBitStream@@PAVCAACAudDec@@EPAEPAI@Z @ 32 NONAME ; unsigned char GetAACGlobalGains(class TBitStream *, class CAACAudDec *, unsigned char, unsigned char *, unsigned int *)
	?GetFrameTime@CMp3Edit@@QBEHPAVTMpTransportHandle@@@Z @ 33 NONAME ; int CMp3Edit::GetFrameTime(class TMpTransportHandle *) const
	?GetMPGlobalGains@CMp3Edit@@QAEEPAVTBitStream@@PAVTMpTransportHandle@@PAEPAI@Z @ 34 NONAME ; unsigned char CMp3Edit::GetMPGlobalGains(class TBitStream *, class TMpTransportHandle *, unsigned char *, unsigned int *)
	?GetSeekOffset@CMp3Edit@@QBEHPAVTMpTransportHandle@@H@Z @ 35 NONAME ; int CMp3Edit::GetSeekOffset(class TMpTransportHandle *, int) const
	?Init@CMPAudDec@@QAEXPAVTMpTransportHandle@@@Z @ 36 NONAME ; void CMPAudDec::Init(class TMpTransportHandle *)
	?InitAACAudDec@@YAXPAVCAACAudDec@@FFE@Z @ 37 NONAME ; void InitAACAudDec(class CAACAudDec *, short, short, unsigned char)
	?InitTransport@CMp3Edit@@QBEXPAVTMpTransportHandle@@@Z @ 38 NONAME ; void CMp3Edit::InitTransport(class TMpTransportHandle *) const
	?IsAACParametricStereoEnabled@@YAEPAVCAACAudDec@@@Z @ 39 NONAME ; unsigned char IsAACParametricStereoEnabled(class CAACAudDec *)
	?IsAACSBREnabled@@YAEPAVCAACAudDec@@@Z @ 40 NONAME ; unsigned char IsAACSBREnabled(class CAACAudDec *)
	?NewL@CMPAudDec@@SAPAV1@XZ @ 41 NONAME ; class CMPAudDec * CMPAudDec::NewL(void)
	?NewL@CMp3Edit@@SAPAV1@XZ @ 42 NONAME ; class CMp3Edit * CMp3Edit::NewL(void)
	?ResetAACAudDec@@YAXPAVCAACAudDec@@@Z @ 43 NONAME ; void ResetAACAudDec(class CAACAudDec *)
	?SeekSync@CMp3Edit@@QBEFPAVTMpTransportHandle@@PAEIPAF22E@Z @ 44 NONAME ; short CMp3Edit::SeekSync(class TMpTransportHandle *, unsigned char *, unsigned int, short *, short *, short *, unsigned char) const
	?SetAACGlobalGains@@YAXPAVTBitStream@@EPAEPAI@Z @ 45 NONAME ; void SetAACGlobalGains(class TBitStream *, unsigned char, unsigned char *, unsigned int *)
	?SetAACPlusGlobalGains@@YAXPAVTBitStream@@0PAVCAACAudDec@@FEPAEPAI@Z @ 46 NONAME ; void SetAACPlusGlobalGains(class TBitStream *, class TBitStream *, class CAACAudDec *, short, unsigned char, unsigned char *, unsigned int *)
	?SetMPGlobalGains@CMp3Edit@@QAEXPAVTBitStream@@EPAEPAI@Z @ 47 NONAME ; void CMp3Edit::SetMPGlobalGains(class TBitStream *, unsigned char, unsigned char *, unsigned int *)

