EXPORTS
	_ZN17CVedAudioClipInfo4NewLERK7TDesC16R25MVedAudioClipInfoObserver @ 1 NONAME
	_ZN17CVedAudioClipInfo5NewLCERK7TDesC16R25MVedAudioClipInfoObserver @ 2 NONAME
	_ZN17CVedVideoClipInfo4NewLERK7TDesC16R25MVedVideoClipInfoObserver @ 3 NONAME
	_ZN17CVedVideoClipInfo5NewLCERK7TDesC16R25MVedVideoClipInfoObserver @ 4 NONAME
	_ZN22CVedVideoClipGeneratorC2Ev @ 5 NONAME
	_ZN22CVedVideoClipGeneratorD0Ev @ 6 NONAME
	_ZN22CVedVideoClipGeneratorD1Ev @ 7 NONAME
	_ZN22CVedVideoClipGeneratorD2Ev @ 8 NONAME
	_ZN9CVedMovie4NewLEP3RFs @ 9 NONAME
	_ZN9CVedMovie5NewLCEP3RFs @ 10 NONAME
	_ZNK22CVedVideoClipGenerator10IsInsertedEv @ 11 NONAME
	_ZNK22CVedVideoClipGenerator14VideoClipIndexEv @ 12 NONAME
	_ZNK22CVedVideoClipGenerator18IsOwnedByVideoClipEv @ 13 NONAME
	_ZNK22CVedVideoClipGenerator21ReportDurationChangedEv @ 14 NONAME
	_ZNK22CVedVideoClipGenerator21ReportSettingsChangedEv @ 15 NONAME
	_ZNK22CVedVideoClipGenerator28ReportDescriptiveNameChangedEv @ 16 NONAME
	_ZNK22CVedVideoClipGenerator30CalculateFrameComplexityFactorEP10CFbsBitmap @ 17 NONAME
	_ZNK22CVedVideoClipGenerator5MovieEv @ 18 NONAME
	_ZTI22CVedVideoClipGenerator @ 19 NONAME ; #<TI>#
	_ZTV22CVedVideoClipGenerator @ 20 NONAME ; #<VT>#
	_ZN17CVedAudioClipInfo4NewLEP5RFileR25MVedAudioClipInfoObserver @ 21 NONAME
	_ZN17CVedAudioClipInfo5NewLCEP5RFileR25MVedAudioClipInfoObserver @ 22 NONAME
	_ZN17CVedVideoClipInfo4NewLEP5RFileR25MVedVideoClipInfoObserver @ 23 NONAME
	_ZN17CVedVideoClipInfo5NewLCEP5RFileR25MVedVideoClipInfoObserver @ 24 NONAME

