EXPORTS
	??1CLogFile@@UAE@XZ @ 1 NONAME ; CLogFile::~CLogFile(void)
	??1CVeiAddQueue@@UAE@XZ @ 2 NONAME ; CVeiAddQueue::~CVeiAddQueue(void)
	??1CVeiImageClipGenerator@@UAE@XZ @ 3 NONAME ; CVeiImageClipGenerator::~CVeiImageClipGenerator(void)
	??1CVeiImageConverter@@UAE@XZ @ 4 NONAME ; CVeiImageConverter::~CVeiImageConverter(void)
	??1CVeiMGFetchVerifier@@UAE@XZ @ 5 NONAME ; CVeiMGFetchVerifier::~CVeiMGFetchVerifier(void)
	??1CVeiTempMaker@@UAE@XZ @ 6 NONAME ; CVeiTempMaker::~CVeiTempMaker(void)
	??1CVeiTitleClipGenerator@@UAE@XZ @ 7 NONAME ; CVeiTitleClipGenerator::~CVeiTitleClipGenerator(void)
	?AddMediaFileToMGAlbumL@VideoEditorUtils@@SAXABVTDesC16@@H@Z @ 8 NONAME ; void VideoEditorUtils::AddMediaFileToMGAlbumL(class TDesC16 const &, int)
	?BackgroundColor@CVeiImageClipGenerator@@QBEABVTRgb@@XZ @ 9 NONAME ; class TRgb const & CVeiImageClipGenerator::BackgroundColor(void) const
	?BackgroundColor@CVeiTitleClipGenerator@@QBE?AVTRgb@@XZ @ 10 NONAME ; class TRgb CVeiTitleClipGenerator::BackgroundColor(void) const
	?BackgroundImage@CVeiTitleClipGenerator@@QBEPAVCFbsBitmap@@XZ @ 11 NONAME ; class CFbsBitmap * CVeiTitleClipGenerator::BackgroundImage(void) const
	?CancelEncoding@CVeiImageConverter@@QAEXXZ @ 12 NONAME ; void CVeiImageConverter::CancelEncoding(void)
	?CancelFrame@CVeiImageClipGenerator@@UAEXXZ @ 13 NONAME ; void CVeiImageClipGenerator::CancelFrame(void)
	?CancelFrame@CVeiTitleClipGenerator@@UAEXXZ @ 14 NONAME ; void CVeiTitleClipGenerator::CancelFrame(void)
	?Count@CVeiAddQueue@@QBEHXZ @ 15 NONAME ; int CVeiAddQueue::Count(void) const
	?DefaultSnapshotName@TVeiSettings@@QAEAAVTDes16@@XZ @ 16 NONAME ; class TDes16 & TVeiSettings::DefaultSnapshotName(void)
	?DefaultSnapshotName@TVeiSettings@@QBE?AVTPtrC16@@XZ @ 17 NONAME ; class TPtrC16 TVeiSettings::DefaultSnapshotName(void) const
	?DefaultVideoName@TVeiSettings@@QAEAAVTDes16@@XZ @ 18 NONAME ; class TDes16 & TVeiSettings::DefaultVideoName(void)
	?DefaultVideoName@TVeiSettings@@QBE?AVTPtrC16@@XZ @ 19 NONAME ; class TPtrC16 TVeiSettings::DefaultVideoName(void) const
	?DescriptiveName@CVeiImageClipGenerator@@UBE?AVTPtrC16@@XZ @ 20 NONAME ; class TPtrC16 CVeiImageClipGenerator::DescriptiveName(void) const
	?DescriptiveName@CVeiTitleClipGenerator@@UBE?AVTPtrC16@@XZ @ 21 NONAME ; class TPtrC16 CVeiTitleClipGenerator::DescriptiveName(void) const
	?Duration@CVeiImageClipGenerator@@UBE?AVTTimeIntervalMicroSeconds@@XZ @ 22 NONAME ; class TTimeIntervalMicroSeconds CVeiImageClipGenerator::Duration(void) const
	?Duration@CVeiTitleClipGenerator@@UBE?AVTTimeIntervalMicroSeconds@@XZ @ 23 NONAME ; class TTimeIntervalMicroSeconds CVeiTitleClipGenerator::Duration(void) const
	?EmptyTempFolder@CVeiTempMaker@@QBEXXZ @ 24 NONAME ; void CVeiTempMaker::EmptyTempFolder(void) const
	?ExternalizeL@TVeiSettings@@QBEXAAVRWriteStream@@@Z @ 25 NONAME ; void TVeiSettings::ExternalizeL(class RWriteStream &) const
	?FinishGetFrameL@CVeiTitleClipGenerator@@AAEPAVCFbsBitmap@@H@Z @ 26 NONAME ; class CFbsBitmap * CVeiTitleClipGenerator::FinishGetFrameL(int)
	?GenerateFileNameL@VideoEditorUtils@@SAHAAVRFs@@ABVTDesC16@@AAVTDes16@@W4TVedVideoFormat@@HV?$TBuf@$0BAA@@@@Z @ 27 NONAME ; int VideoEditorUtils::GenerateFileNameL(class RFs &, class TDesC16 const &, class TDes16 &, enum TVedVideoFormat, int, class TBuf<256>)
	?GenerateNewDocumentNameL@VideoEditorUtils@@SAHAAVRFs@@ABVTDesC16@@AAVTDes16@@W4TVedVideoFormat@@HW4TMemory@VideoEditor@@@Z @ 28 NONAME ; int VideoEditorUtils::GenerateNewDocumentNameL(class RFs &, class TDesC16 const &, class TDes16 &, enum TVedVideoFormat, int, enum VideoEditor::TMemory)
	?GenerateTempFileName@CVeiTempMaker@@QBEXAAVHBufC16@@W4TMemory@CAknMemorySelectionDialog@@W4TVedVideoFormat@@H@Z @ 29 NONAME ; void CVeiTempMaker::GenerateTempFileName(class HBufC16 &, enum CAknMemorySelectionDialog::TMemory, enum TVedVideoFormat, int) const
	?GetBitmap@CVeiImageConverter@@QAEPAVCFbsBitmap@@XZ @ 30 NONAME ; class CFbsBitmap * CVeiImageConverter::GetBitmap(void)
	?GetEncoderImageTypesL@CVeiImageConverter@@SAXAAV?$RPointerArray@VCImageTypeDescription@@@@@Z @ 31 NONAME ; void CVeiImageConverter::GetEncoderImageTypesL(class RPointerArray<class CImageTypeDescription> &)
	?GetFirstFrameL@CVeiTitleClipGenerator@@AAEPAVCFbsBitmap@@XZ @ 32 NONAME ; class CFbsBitmap * CVeiTitleClipGenerator::GetFirstFrameL(void)
	?GetFrameL@CVeiImageClipGenerator@@UAEXAAVMVedVideoClipGeneratorFrameObserver@@HPAVTSize@@W4TDisplayMode@@HH@Z @ 33 NONAME ; void CVeiImageClipGenerator::GetFrameL(class MVedVideoClipGeneratorFrameObserver &, int, class TSize *, enum TDisplayMode, int, int)
	?GetFrameL@CVeiTitleClipGenerator@@UAEXAAVMVedVideoClipGeneratorFrameObserver@@HPAVTSize@@W4TDisplayMode@@HH@Z @ 34 NONAME ; void CVeiTitleClipGenerator::GetFrameL(class MVedVideoClipGeneratorFrameObserver &, int, class TSize *, enum TDisplayMode, int, int)
	?GetFramesL@CVeiFrameTaker@@QAEXAAVCVedVideoClipInfo@@HPAVTSize@@H1H1H@Z @ 35 NONAME ; void CVeiFrameTaker::GetFramesL(class CVedVideoClipInfo &, int, class TSize *, int, class TSize *, int, class TSize *, int)
	?GetMGAlbumsListForMediaFileL@VideoEditorUtils@@SAXAAV?$RArray@H@@ABVTDesC16@@@Z @ 36 NONAME ; void VideoEditorUtils::GetMGAlbumsListForMediaFileL(class RArray<int> &, class TDesC16 const &)
	?GetMaxMmsSizeL@CVeiVideoEditorSettings@@SAXAAH@Z @ 37 NONAME ; void CVeiVideoEditorSettings::GetMaxMmsSizeL(int &)
	?GetMediaPlayerVolumeLevelL@CVeiVideoEditorSettings@@SAXAAH@Z @ 38 NONAME ; void CVeiVideoEditorSettings::GetMediaPlayerVolumeLevelL(int &)
	?GetNext@CVeiAddQueue@@QAEXXZ @ 39 NONAME ; void CVeiAddQueue::GetNext(void)
	?GetVideoFrameIndex@CVeiImageClipGenerator@@UBEHVTTimeIntervalMicroSeconds@@@Z @ 40 NONAME ; int CVeiImageClipGenerator::GetVideoFrameIndex(class TTimeIntervalMicroSeconds) const
	?GetVideoFrameIndex@CVeiTitleClipGenerator@@UBEHVTTimeIntervalMicroSeconds@@@Z @ 41 NONAME ; int CVeiTitleClipGenerator::GetVideoFrameIndex(class TTimeIntervalMicroSeconds) const
	?HorizontalAlignment@CVeiTitleClipGenerator@@QBE?AW4TVeiTitleClipHorizontalAlignment@@XZ @ 42 NONAME ; enum TVeiTitleClipHorizontalAlignment CVeiTitleClipGenerator::HorizontalAlignment(void) const
	?IconFileNameAndPath@VideoEditorUtils@@SA?AV?$TBuf@$0BAA@@@H@Z @ 43 NONAME ; class TBuf<256> VideoEditorUtils::IconFileNameAndPath(int)
	?ImageFilename@CVeiImageClipGenerator@@QBE?AVTPtrC16@@XZ @ 44 NONAME ; class TPtrC16 CVeiImageClipGenerator::ImageFilename(void) const
	?InsertMediaL@CVeiAddQueue@@QAEXABVTDesC16@@@Z @ 45 NONAME ; void CVeiAddQueue::InsertMediaL(class TDesC16 const &)
	?InternalizeL@TVeiSettings@@QAEXAAVRReadStream@@@Z @ 46 NONAME ; void TVeiSettings::InternalizeL(class RReadStream &)
	?IsDrmProtectedL@VideoEditorUtils@@SAHABVTDesC16@@@Z @ 47 NONAME ; int VideoEditorUtils::IsDrmProtectedL(class TDesC16 const &)
	?IsEnoughFreeSpaceToSaveL@VideoEditorUtils@@SAHAAVRFs@@ABVTDesC16@@H@Z @ 48 NONAME ; int VideoEditorUtils::IsEnoughFreeSpaceToSaveL(class RFs &, class TDesC16 const &, int)
	?IsLandscapeScreenOrientation@VideoEditorUtils@@SAHXZ @ 49 NONAME ; int VideoEditorUtils::IsLandscapeScreenOrientation(void)
	?LaunchListQueryDialogL@VideoEditorUtils@@SAHPAVMDesC16Array@@ABVTDesC16@@@Z @ 50 NONAME ; int VideoEditorUtils::LaunchListQueryDialogL(class MDesC16Array *, class TDesC16 const &)
	?LaunchQueryDialogL@VideoEditorUtils@@SAHABVTDesC16@@@Z @ 51 NONAME ; int VideoEditorUtils::LaunchQueryDialogL(class TDesC16 const &)
	?LaunchSaveChangesQueryL@VideoEditorUtils@@SAHXZ @ 52 NONAME ; int VideoEditorUtils::LaunchSaveChangesQueryL(void)
	?LaunchSaveVideoQueryL@VideoEditorUtils@@SAHXZ @ 53 NONAME ; int VideoEditorUtils::LaunchSaveVideoQueryL(void)
	?Log@CLogFile@@QAEXABVTDesC16@@@Z @ 54 NONAME ; void CLogFile::Log(class TDesC16 const &)
	?Log@CLogFile@@QAEXABVTDesC8@@@Z @ 55 NONAME ; void CLogFile::Log(class TDesC8 const &)
	?Log@CLogFile@@QAEXE@Z @ 56 NONAME ; void CLogFile::Log(unsigned char)
	?Log@CLogFile@@QAEXI@Z @ 57 NONAME ; void CLogFile::Log(unsigned int)
	?LogBytes@CLogFile@@QAEXABVTDesC8@@@Z @ 58 NONAME ; void CLogFile::LogBytes(class TDesC8 const &)
	?LogNewline@CLogFile@@QAEXXZ @ 59 NONAME ; void CLogFile::LogNewline(void)
	?LogTime@CLogFile@@QAEXXZ @ 60 NONAME ; void CLogFile::LogTime(void)
	?MemoryInUse@TVeiSettings@@QAEAAW4TMemory@CAknMemorySelectionDialog@@XZ @ 61 NONAME ; enum CAknMemorySelectionDialog::TMemory & TVeiSettings::MemoryInUse(void)
	?MemoryInUse@TVeiSettings@@QBEABW4TMemory@CAknMemorySelectionDialog@@XZ @ 62 NONAME ; enum CAknMemorySelectionDialog::TMemory const & TVeiSettings::MemoryInUse(void) const
	?NewL@CLogFile@@SAPAV1@ABVTDesC16@@H@Z @ 63 NONAME ; class CLogFile * CLogFile::NewL(class TDesC16 const &, int)
	?NewL@CVeiAddQueue@@SAPAV1@AAVMVedAudioClipInfoObserver@@AAVCVedMovie@@AAVMVeiQueueObserver@@@Z @ 64 NONAME ; class CVeiAddQueue * CVeiAddQueue::NewL(class MVedAudioClipInfoObserver &, class CVedMovie &, class MVeiQueueObserver &)
	?NewL@CVeiDisplayLighter@@SAPAV1@XZ @ 65 NONAME ; class CVeiDisplayLighter * CVeiDisplayLighter::NewL(void)
	?NewL@CVeiFrameTaker@@SAPAV1@AAVMVeiFrameTakerObserver@@@Z @ 66 NONAME ; class CVeiFrameTaker * CVeiFrameTaker::NewL(class MVeiFrameTakerObserver &)
	?NewL@CVeiImageClipGenerator@@SAPAV1@ABVTDesC16@@ABVTSize@@ABVTTimeIntervalMicroSeconds@@ABVTRgb@@W4TDisplayMode@@AAVRFs@@AAVMVeiImageClipGeneratorObserver@@@Z @ 67 NONAME ; class CVeiImageClipGenerator * CVeiImageClipGenerator::NewL(class TDesC16 const &, class TSize const &, class TTimeIntervalMicroSeconds const &, class TRgb const &, enum TDisplayMode, class RFs &, class MVeiImageClipGeneratorObserver &)
	?NewL@CVeiImageConverter@@SAPAV1@PAVMConverterController@@@Z @ 68 NONAME ; class CVeiImageConverter * CVeiImageConverter::NewL(class MConverterController *)
	?NewL@CVeiRemConTarget@@SAPAV1@AAVMVeiMediakeyObserver@@@Z @ 69 NONAME ; class CVeiRemConTarget * CVeiRemConTarget::NewL(class MVeiMediakeyObserver &)
	?NewL@CVeiTempMaker@@SAPAV1@XZ @ 70 NONAME ; class CVeiTempMaker * CVeiTempMaker::NewL(void)
	?NewL@CVeiTitleClipGenerator@@SAPAV1@ABVTSize@@W4TVeiTitleClipTransition@@W4TVeiTitleClipHorizontalAlignment@@W4TVeiTitleClipVerticalAlignment@@@Z @ 71 NONAME ; class CVeiTitleClipGenerator * CVeiTitleClipGenerator::NewL(class TSize const &, enum TVeiTitleClipTransition, enum TVeiTitleClipHorizontalAlignment, enum TVeiTitleClipVerticalAlignment)
	?NewLC@CLogFile@@SAPAV1@ABVTDesC16@@H@Z @ 72 NONAME ; class CLogFile * CLogFile::NewLC(class TDesC16 const &, int)
	?NewLC@CVeiAddQueue@@SAPAV1@AAVMVedAudioClipInfoObserver@@AAVCVedMovie@@AAVMVeiQueueObserver@@@Z @ 73 NONAME ; class CVeiAddQueue * CVeiAddQueue::NewLC(class MVedAudioClipInfoObserver &, class CVedMovie &, class MVeiQueueObserver &)
	?NewLC@CVeiImageClipGenerator@@SAPAV1@ABVTDesC16@@ABVTSize@@ABVTTimeIntervalMicroSeconds@@ABVTRgb@@W4TDisplayMode@@AAVRFs@@AAVMVeiImageClipGeneratorObserver@@@Z @ 74 NONAME ; class CVeiImageClipGenerator * CVeiImageClipGenerator::NewLC(class TDesC16 const &, class TSize const &, class TTimeIntervalMicroSeconds const &, class TRgb const &, enum TDisplayMode, class RFs &, class MVeiImageClipGeneratorObserver &)
	?NewLC@CVeiMGFetchVerifier@@SAPAV1@XZ @ 75 NONAME ; class CVeiMGFetchVerifier * CVeiMGFetchVerifier::NewLC(void)
	?NewLC@CVeiTempMaker@@SAPAV1@XZ @ 76 NONAME ; class CVeiTempMaker * CVeiTempMaker::NewLC(void)
	?NewLC@CVeiTitleClipGenerator@@SAPAV1@ABVTSize@@W4TVeiTitleClipTransition@@W4TVeiTitleClipHorizontalAlignment@@W4TVeiTitleClipVerticalAlignment@@@Z @ 77 NONAME ; class CVeiTitleClipGenerator * CVeiTitleClipGenerator::NewLC(class TSize const &, enum TVeiTitleClipTransition, enum TVeiTitleClipHorizontalAlignment, enum TVeiTitleClipVerticalAlignment)
	?NotifyNewMediaDocumentL@VideoEditorUtils@@SAXAAVRFs@@ABVTDesC16@@@Z @ 78 NONAME ; void VideoEditorUtils::NotifyNewMediaDocumentL(class RFs &, class TDesC16 const &)
	?Reset@CVeiDisplayLighter@@QAEXXZ @ 79 NONAME ; void CVeiDisplayLighter::Reset(void)
	?SaveQuality@TVeiSettings@@QAEAAHXZ @ 80 NONAME ; int & TVeiSettings::SaveQuality(void)
	?SaveQuality@TVeiSettings@@QBEHXZ @ 81 NONAME ; int TVeiSettings::SaveQuality(void) const
	?ScaleL@CVeiImageConverter@@QAEXPAVCFbsBitmap@@0ABVTSize@@@Z @ 82 NONAME ; void CVeiImageConverter::ScaleL(class CFbsBitmap *, class CFbsBitmap *, class TSize const &)
	?SetAutoFlush@CLogFile@@QAEXH@Z @ 83 NONAME ; void CLogFile::SetAutoFlush(int)
	?SetAutoNewline@CLogFile@@QAEXH@Z @ 84 NONAME ; void CLogFile::SetAutoNewline(int)
	?SetAutoTimeStamp@CLogFile@@QAEXH@Z @ 85 NONAME ; void CLogFile::SetAutoTimeStamp(int)
	?SetBackgroundColor@CVeiImageClipGenerator@@QAEXABVTRgb@@@Z @ 86 NONAME ; void CVeiImageClipGenerator::SetBackgroundColor(class TRgb const &)
	?SetBackgroundColorL@CVeiTitleClipGenerator@@QAEXABVTRgb@@@Z @ 87 NONAME ; void CVeiTitleClipGenerator::SetBackgroundColorL(class TRgb const &)
	?SetBackgroundImageL@CVeiTitleClipGenerator@@QAEXABVTDesC16@@AAVMVeiTitleClipGeneratorObserver@@@Z @ 88 NONAME ; void CVeiTitleClipGenerator::SetBackgroundImageL(class TDesC16 const &, class MVeiTitleClipGeneratorObserver &)
	?SetBackgroundImageL@CVeiTitleClipGenerator@@QAEXPBVCFbsBitmap@@@Z @ 89 NONAME ; void CVeiTitleClipGenerator::SetBackgroundImageL(class CFbsBitmap const *)
	?SetBitmap@CVeiImageConverter@@QAEXPAVCFbsBitmap@@@Z @ 90 NONAME ; void CVeiImageConverter::SetBitmap(class CFbsBitmap *)
	?SetDescriptiveNameL@CVeiTitleClipGenerator@@QAEXABVTDesC16@@@Z @ 91 NONAME ; void CVeiTitleClipGenerator::SetDescriptiveNameL(class TDesC16 const &)
	?SetDuration@CVeiImageClipGenerator@@QAEXABVTTimeIntervalMicroSeconds@@@Z @ 92 NONAME ; void CVeiImageClipGenerator::SetDuration(class TTimeIntervalMicroSeconds const &)
	?SetDuration@CVeiTitleClipGenerator@@QAEXABVTTimeIntervalMicroSeconds@@@Z @ 93 NONAME ; void CVeiTitleClipGenerator::SetDuration(class TTimeIntervalMicroSeconds const &)
	?SetMediaPlayerVolumeLevelL@CVeiVideoEditorSettings@@SAXH@Z @ 94 NONAME ; void CVeiVideoEditorSettings::SetMediaPlayerVolumeLevelL(int)
	?SetTextColorL@CVeiTitleClipGenerator@@QAEXABVTRgb@@@Z @ 95 NONAME ; void CVeiTitleClipGenerator::SetTextColorL(class TRgb const &)
	?SetTextL@CVeiTitleClipGenerator@@QAEXABVTDesC16@@@Z @ 96 NONAME ; void CVeiTitleClipGenerator::SetTextL(class TDesC16 const &)
	?SetTransitionAndAlignmentsL@CVeiTitleClipGenerator@@QAEXW4TVeiTitleClipTransition@@W4TVeiTitleClipHorizontalAlignment@@W4TVeiTitleClipVerticalAlignment@@@Z @ 97 NONAME ; void CVeiTitleClipGenerator::SetTransitionAndAlignmentsL(enum TVeiTitleClipTransition, enum TVeiTitleClipHorizontalAlignment, enum TVeiTitleClipVerticalAlignment)
	?ShowAudioClipDialogL@CVeiAddQueue@@QAEHXZ @ 98 NONAME ; int CVeiAddQueue::ShowAudioClipDialogL(void)
	?ShowVideoClipDialogL@CVeiAddQueue@@QAEHW4TCursorLocation@VideoEditor@@H@Z @ 99 NONAME ; int CVeiAddQueue::ShowVideoClipDialogL(enum VideoEditor::TCursorLocation, int)
	?Start@CVeiDisplayLighter@@QAEXXZ @ 100 NONAME ; void CVeiDisplayLighter::Start(void)
	?StartProcessingL@CVeiAddQueue@@QAEXXZ @ 101 NONAME ; void CVeiAddQueue::StartProcessingL(void)
	?StartToEncodeL@CVeiImageConverter@@QAEXABVTDesC16@@ABVTUid@@1@Z @ 102 NONAME ; void CVeiImageConverter::StartToEncodeL(class TDesC16 const &, class TUid const &, class TUid const &)
	?StaticLog@CLogFile@@SAXABVTDesC16@@0@Z @ 103 NONAME ; void CLogFile::StaticLog(class TDesC16 const &, class TDesC16 const &)
	?StaticLog@CLogFile@@SAXABVTDesC16@@ABVTDesC8@@@Z @ 104 NONAME ; void CLogFile::StaticLog(class TDesC16 const &, class TDesC8 const &)
	?StaticLogL@CLogFile@@SAXABVTDesC16@@0@Z @ 105 NONAME ; void CLogFile::StaticLogL(class TDesC16 const &, class TDesC16 const &)
	?StaticLogL@CLogFile@@SAXABVTDesC16@@ABVTDesC8@@@Z @ 106 NONAME ; void CLogFile::StaticLogL(class TDesC16 const &, class TDesC8 const &)
	?Stop@CVeiDisplayLighter@@QAEXXZ @ 107 NONAME ; void CVeiDisplayLighter::Stop(void)
	?Text@CVeiTitleClipGenerator@@QBE?AVTPtrC16@@XZ @ 108 NONAME ; class TPtrC16 CVeiTitleClipGenerator::Text(void) const
	?TextColor@CVeiTitleClipGenerator@@QBE?AVTRgb@@XZ @ 109 NONAME ; class TRgb CVeiTitleClipGenerator::TextColor(void) const
	?Transition@CVeiTitleClipGenerator@@QBE?AW4TVeiTitleClipTransition@@XZ @ 110 NONAME ; enum TVeiTitleClipTransition CVeiTitleClipGenerator::Transition(void) const
	?Uid@CVeiImageClipGenerator@@UBE?AVTUid@@XZ @ 111 NONAME ; class TUid CVeiImageClipGenerator::Uid(void) const
	?Uid@CVeiTitleClipGenerator@@UBE?AVTUid@@XZ @ 112 NONAME ; class TUid CVeiTitleClipGenerator::Uid(void) const
	?VerifySelectionL@CVeiMGFetchVerifier@@UAEHPBVMDesC16Array@@@Z @ 113 NONAME ; int CVeiMGFetchVerifier::VerifySelectionL(class MDesC16Array const *)
	?VerticalAlignment@CVeiTitleClipGenerator@@QBE?AW4TVeiTitleClipVerticalAlignment@@XZ @ 114 NONAME ; enum TVeiTitleClipVerticalAlignment CVeiTitleClipGenerator::VerticalAlignment(void) const
	?VideoFirstFrameComplexityFactor@CVeiImageClipGenerator@@UBEHXZ @ 115 NONAME ; int CVeiImageClipGenerator::VideoFirstFrameComplexityFactor(void) const
	?VideoFirstFrameComplexityFactor@CVeiTitleClipGenerator@@UBEHXZ @ 116 NONAME ; int CVeiTitleClipGenerator::VideoFirstFrameComplexityFactor(void) const
	?VideoFrameCount@CVeiImageClipGenerator@@UBEHXZ @ 117 NONAME ; int CVeiImageClipGenerator::VideoFrameCount(void) const
	?VideoFrameCount@CVeiTitleClipGenerator@@UBEHXZ @ 118 NONAME ; int CVeiTitleClipGenerator::VideoFrameCount(void) const
	?VideoFrameDifferenceFactor@CVeiImageClipGenerator@@UBEHH@Z @ 119 NONAME ; int CVeiImageClipGenerator::VideoFrameDifferenceFactor(int) const
	?VideoFrameDifferenceFactor@CVeiTitleClipGenerator@@UBEHH@Z @ 120 NONAME ; int CVeiTitleClipGenerator::VideoFrameDifferenceFactor(int) const
	?VideoFrameDuration@CVeiImageClipGenerator@@UBE?AVTTimeIntervalMicroSeconds@@H@Z @ 121 NONAME ; class TTimeIntervalMicroSeconds CVeiImageClipGenerator::VideoFrameDuration(int) const
	?VideoFrameDuration@CVeiTitleClipGenerator@@UBE?AVTTimeIntervalMicroSeconds@@H@Z @ 122 NONAME ; class TTimeIntervalMicroSeconds CVeiTitleClipGenerator::VideoFrameDuration(int) const
	?VideoFrameEndTime@CVeiImageClipGenerator@@UBE?AVTTimeIntervalMicroSeconds@@H@Z @ 123 NONAME ; class TTimeIntervalMicroSeconds CVeiImageClipGenerator::VideoFrameEndTime(int) const
	?VideoFrameEndTime@CVeiTitleClipGenerator@@UBE?AVTTimeIntervalMicroSeconds@@H@Z @ 124 NONAME ; class TTimeIntervalMicroSeconds CVeiTitleClipGenerator::VideoFrameEndTime(int) const
	?VideoFrameIsIntra@CVeiImageClipGenerator@@UBEHH@Z @ 125 NONAME ; int CVeiImageClipGenerator::VideoFrameIsIntra(int) const
	?VideoFrameStartTime@CVeiImageClipGenerator@@UBE?AVTTimeIntervalMicroSeconds@@H@Z @ 126 NONAME ; class TTimeIntervalMicroSeconds CVeiImageClipGenerator::VideoFrameStartTime(int) const
	?VideoFrameStartTime@CVeiTitleClipGenerator@@UBE?AVTTimeIntervalMicroSeconds@@H@Z @ 127 NONAME ; class TTimeIntervalMicroSeconds CVeiTitleClipGenerator::VideoFrameStartTime(int) const

