EXPORTS
	??1CAudClipInfo@@UAE@XZ @ 1 NONAME ; CAudClipInfo::~CAudClipInfo(void)
	??1CAudSong@@UAE@XZ @ 2 NONAME ; CAudSong::~CAudSong(void)
	?AddClipL@CAudSong@@QAEXABVTDesC16@@VTTimeIntervalMicroSeconds@@H11@Z @ 3 NONAME ; void CAudSong::AddClipL(class TDesC16 const &, class TTimeIntervalMicroSeconds, int, class TTimeIntervalMicroSeconds, class TTimeIntervalMicroSeconds)
	?AreOutputPropertiesSupported@CAudSong@@QAEHABVTAudFileProperties@@@Z @ 4 NONAME ; int CAudSong::AreOutputPropertiesSupported(class TAudFileProperties const &)
	?CancelVisualization@CAudClipInfo@@QAEXXZ @ 5 NONAME ; void CAudClipInfo::CancelVisualization(void)
	?Clip@CAudSong@@QBEPAVCAudClip@@HH@Z @ 6 NONAME ; class CAudClip * CAudSong::Clip(int, int) const
	?ClipCount@CAudSong@@QBEHH@Z @ 7 NONAME ; int CAudSong::ClipCount(int) const
	?CutInTime@CAudClip@@QBE?AVTTimeIntervalMicroSeconds@@XZ @ 8 NONAME ; class TTimeIntervalMicroSeconds CAudClip::CutInTime(void) const
	?CutOutTime@CAudClip@@QBE?AVTTimeIntervalMicroSeconds@@XZ @ 9 NONAME ; class TTimeIntervalMicroSeconds CAudClip::CutOutTime(void) const
	?DynamicLevelMark@CAudClip@@QBE?AVTAudDynamicLevelMark@@H@Z @ 10 NONAME ; class TAudDynamicLevelMark CAudClip::DynamicLevelMark(int) const
	?DynamicLevelMarkCount@CAudClip@@QBEHXZ @ 11 NONAME ; int CAudClip::DynamicLevelMarkCount(void) const
	?EditedDuration@CAudClip@@QBE?AVTTimeIntervalMicroSeconds@@XZ @ 12 NONAME ; class TTimeIntervalMicroSeconds CAudClip::EditedDuration(void) const
	?EndTime@CAudClip@@QBE?AVTTimeIntervalMicroSeconds@@XZ @ 13 NONAME ; class TTimeIntervalMicroSeconds CAudClip::EndTime(void) const
	?FileName@CAudClipInfo@@QBE?AVTPtrC16@@XZ @ 14 NONAME ; class TPtrC16 CAudClipInfo::FileName(void) const
	?GetFrameDurationMicro@CAudSong@@QAEHXZ @ 15 NONAME ; int CAudSong::GetFrameDurationMicro(void)
	?GetFrameSizeEstimateL@CAudSong@@QBEHVTTimeIntervalMicroSeconds@@0@Z @ 16 NONAME ; int CAudSong::GetFrameSizeEstimateL(class TTimeIntervalMicroSeconds, class TTimeIntervalMicroSeconds) const
	?GetMP4DecoderSpecificInfoLC@CAudSong@@QBEHAAPAVHBufC8@@H@Z @ 17 NONAME ; int CAudSong::GetMP4DecoderSpecificInfoLC(class HBufC8 * &, int) const
	?GetSizeEstimateL@CAudSong@@QBEHXZ @ 18 NONAME ; int CAudSong::GetSizeEstimateL(void) const
	?GetTimeEstimateL@CAudSong@@QAE?AVTTimeIntervalMicroSeconds@@XZ @ 19 NONAME ; class TTimeIntervalMicroSeconds CAudSong::GetTimeEstimateL(void)
	?GetTimeEstimateL@CAudSong@@QAEHAAVMAudTimeEstimateObserver@@W4TAudType@@HW4TChannelMode@@H@Z @ 20 NONAME ; int CAudSong::GetTimeEstimateL(class MAudTimeEstimateObserver &, enum TAudType, int, enum TChannelMode, int)
	?GetVisualizationL@CAudClipInfo@@QBEXAAVMAudVisualizationObserver@@HH@Z @ 21 NONAME ; void CAudClipInfo::GetVisualizationL(class MAudVisualizationObserver &, int, int) const
	?GetVolumeGain@CAudClip@@QAEHXZ @ 22 NONAME ; int CAudClip::GetVolumeGain(void)
	?IndexOnTrack@CAudClip@@QBEHXZ @ 23 NONAME ; int CAudClip::IndexOnTrack(void) const
	?Info@CAudClip@@QBEPAVCAudClipInfo@@XZ @ 24 NONAME ; class CAudClipInfo * CAudClip::Info(void) const
	?InsertDynamicLevelMarkL@CAudClip@@QAEHABVTAudDynamicLevelMark@@@Z @ 25 NONAME ; int CAudClip::InsertDynamicLevelMarkL(class TAudDynamicLevelMark const &)
	?Muting@CAudClip@@QBEHXZ @ 26 NONAME ; int CAudClip::Muting(void) const
	?NewL@CAudClipInfo@@SAPAV1@ABVTDesC16@@AAVMAudClipInfoObserver@@@Z @ 27 NONAME ; class CAudClipInfo * CAudClipInfo::NewL(class TDesC16 const &, class MAudClipInfoObserver &)
	?NewL@CAudSong@@SAPAV1@PAVRFs@@@Z @ 28 NONAME ; class CAudSong * CAudSong::NewL(class RFs *)
	?NewLC@CAudClipInfo@@SAPAV1@ABVTDesC16@@AAVMAudClipInfoObserver@@@Z @ 29 NONAME ; class CAudClipInfo * CAudClipInfo::NewLC(class TDesC16 const &, class MAudClipInfoObserver &)
	?NewLC@CAudSong@@SAPAV1@PAVRFs@@@Z @ 30 NONAME ; class CAudSong * CAudSong::NewLC(class RFs *)
	?Normalizing@CAudClip@@QBEHXZ @ 31 NONAME ; int CAudClip::Normalizing(void) const
	?OutputFileProperties@CAudSong@@QBE?AVTAudFileProperties@@XZ @ 32 NONAME ; class TAudFileProperties CAudSong::OutputFileProperties(void) const
	?Priority@CAudClip@@QBEHXZ @ 33 NONAME ; int CAudClip::Priority(void) const
	?Properties@CAudClipInfo@@QBE?AVTAudFileProperties@@XZ @ 34 NONAME ; class TAudFileProperties CAudClipInfo::Properties(void) const
	?RegisterSongObserverL@CAudSong@@QAEXPAVMAudSongObserver@@@Z @ 35 NONAME ; void CAudSong::RegisterSongObserverL(class MAudSongObserver *)
	?RemoveClip@CAudSong@@QAEXHH@Z @ 36 NONAME ; void CAudSong::RemoveClip(int, int)
	?RemoveDynamicLevelMark@CAudClip@@QAEHH@Z @ 37 NONAME ; int CAudClip::RemoveDynamicLevelMark(int)
	?Reset@CAudClip@@QAEXH@Z @ 38 NONAME ; void CAudClip::Reset(int)
	?Reset@CAudSong@@QAEXH@Z @ 39 NONAME ; void CAudSong::Reset(int)
	?SetCutInTime@CAudClip@@QAEXVTTimeIntervalMicroSeconds@@@Z @ 40 NONAME ; void CAudClip::SetCutInTime(class TTimeIntervalMicroSeconds)
	?SetCutOutTime@CAudClip@@QAEXVTTimeIntervalMicroSeconds@@@Z @ 41 NONAME ; void CAudClip::SetCutOutTime(class TTimeIntervalMicroSeconds)
	?SetDuration@CAudSong@@QAEHVTTimeIntervalMicroSeconds@@@Z @ 42 NONAME ; int CAudSong::SetDuration(class TTimeIntervalMicroSeconds)
	?SetMuting@CAudClip@@QAEXH@Z @ 43 NONAME ; void CAudClip::SetMuting(int)
	?SetNormalizing@CAudClip@@QAEXH@Z @ 44 NONAME ; void CAudClip::SetNormalizing(int)
	?SetOutputFileFormat@CAudSong@@QAEHW4TAudType@@HW4TChannelMode@@H@Z @ 45 NONAME ; int CAudSong::SetOutputFileFormat(enum TAudType, int, enum TChannelMode, int)
	?SetPriority@CAudClip@@QAEHH@Z @ 46 NONAME ; int CAudClip::SetPriority(int)
	?SetStartTime@CAudClip@@QAEXVTTimeIntervalMicroSeconds@@@Z @ 47 NONAME ; void CAudClip::SetStartTime(class TTimeIntervalMicroSeconds)
	?SetVolumeGain@CAudClip@@QAEXH@Z @ 48 NONAME ; void CAudClip::SetVolumeGain(int)
	?StartTime@CAudClip@@QBE?AVTTimeIntervalMicroSeconds@@XZ @ 49 NONAME ; class TTimeIntervalMicroSeconds CAudClip::StartTime(void) const
	?SyncCancelProcess@CAudSong@@QAEXXZ @ 50 NONAME ; void CAudSong::SyncCancelProcess(void)
	?SyncProcessFrameL@CAudSong@@QAEHAAPAVHBufC8@@AAHAAVTTimeIntervalMicroSeconds@@@Z @ 51 NONAME ; int CAudSong::SyncProcessFrameL(class HBufC8 * &, int &, class TTimeIntervalMicroSeconds &)
	?SyncStartProcessingL@CAudSong@@QAEHXZ @ 52 NONAME ; int CAudSong::SyncStartProcessingL(void)
	?TrackIndex@CAudClip@@QBEHXZ @ 53 NONAME ; int CAudClip::TrackIndex(void) const
	?UnregisterSongObserver@CAudSong@@QAEXPAVMAudSongObserver@@@Z @ 54 NONAME ; void CAudSong::UnregisterSongObserver(class MAudSongObserver *)
	?AddClipL@CAudSong@@QAEXPAVRFile@@VTTimeIntervalMicroSeconds@@H11@Z @ 55 NONAME ; void CAudSong::AddClipL(class RFile *, class TTimeIntervalMicroSeconds, int, class TTimeIntervalMicroSeconds, class TTimeIntervalMicroSeconds)
	?FileHandle@CAudClipInfo@@QBEPAVRFile@@XZ @ 56 NONAME ; class RFile * CAudClipInfo::FileHandle(void) const
	?NewL@CAudClipInfo@@SAPAV1@PAVRFile@@AAVMAudClipInfoObserver@@@Z @ 57 NONAME ; class CAudClipInfo * CAudClipInfo::NewL(class RFile *, class MAudClipInfoObserver &)
	?NewLC@CAudClipInfo@@SAPAV1@PAVRFile@@AAVMAudClipInfoObserver@@@Z @ 58 NONAME ; class CAudClipInfo * CAudClipInfo::NewLC(class RFile *, class MAudClipInfoObserver &)

